-----BEGIN CERTIFICATE-----
MIIGKTCCBRGgAwIBAgIQDdbC5Ib+4Mjkp3+Z2EZl0TANBgkqhkiG9w0BAQsFADBN
MQswCQYDVQQGEwJVUzEVMBMGA1UEChMMRGlnaUNlcnQgSW5jMScwJQYDVQQDEx5E
aWdpQ2VydCBTSEEyIFNlY3VyZSBTZXJ2ZXIgQ0EwHhcNMjAwMjI0MDAwMDAwWhcN
MjEwMjI0MTIwMDAwWjB3MQswCQYDVQQGEwJVUzEOMAwGA1UECBMFVGV4YXMxDzAN
BgNVBAcTBkRhbGxhczEcMBoGA1UECgwTQVQmVCBTZXJ2aWNlcywgSW5jLjEQMA4G
A1UECxMHRGF0YVZhczEXMBUGA1UEAxMOc3VwbC5hdHRtZXgubXgwggEiMA0GCSqG
SIb3DQEBAQUAA4IBDwAwggEKAoIBAQDS3YvxxP3I11tzdGU+S+q+JMGdHLU5CAZy
PFKyZxoNnQ86DR3ZiOCzy9BGVYnZ7I7mJwJOgE/w7rPFDSrbo9nJfYp/DMTp3AEL
u1qfCU/yBgW2qDEVvzcu/MZLYSIUNspszMdTGI9vNlONpjls1eZmPCH2Le0ySdS6
2pb23R+5ZPYNP01fLYGds51B3cKnbaqh2nycgTqbwvNsbjn39ymljao5fVsK7pXD
/9yQWRsn2PPg3bgrHaoBzJRx0hNSmS9mHZXrKkVFBUDcYb+MOXjN45rZQb2ACM3b
6Ytfh5usD1vflNCeVWcyjXa2O/Q8e0W3S+IMQKDku9Iv8FHjYS+LAgMBAAGjggLZ
MIIC1TAfBgNVHSMEGDAWgBQPgGEcgjFh1S8o541GOLQs4cbZ4jAdBgNVHQ4EFgQU
nf1iY341mmWs52uYpvNJmSnO5sMwGQYDVR0RBBIwEIIOc3VwbC5hdHRtZXgubXgw
DgYDVR0PAQH/BAQDAgWgMB0GA1UdJQQWMBQGCCsGAQUFBwMBBggrBgEFBQcDAjBr
BgNVHR8EZDBiMC+gLaArhilodHRwOi8vY3JsMy5kaWdpY2VydC5jb20vc3NjYS1z
aGEyLWc2LmNybDAvoC2gK4YpaHR0cDovL2NybDQuZGlnaWNlcnQuY29tL3NzY2Et
c2hhMi1nNi5jcmwwTAYDVR0gBEUwQzA3BglghkgBhv1sAQEwKjAoBggrBgEFBQcC
ARYcaHR0cHM6Ly93d3cuZGlnaWNlcnQuY29tL0NQUzAIBgZngQwBAgIwfAYIKwYB
BQUHAQEEcDBuMCQGCCsGAQUFBzABhhhodHRwOi8vb2NzcC5kaWdpY2VydC5jb20w
RgYIKwYBBQUHMAKGOmh0dHA6Ly9jYWNlcnRzLmRpZ2ljZXJ0LmNvbS9EaWdpQ2Vy
dFNIQTJTZWN1cmVTZXJ2ZXJDQS5jcnQwCQYDVR0TBAIwADCCAQMGCisGAQQB1nkC
BAIEgfQEgfEA7wB2ALvZ37wfinG1k5Qjl6qSe0c4V5UKq1LoGpCWZDaOHtGFAAAB
cHh0Yc8AAAQDAEcwRQIgC2Q0Ltek+hWGNQgf1QS4q11x2B7FC5k1q47cHfuHjJkC
IQDaO4C0IEVrHtCpvvz40wPC+HN3KNI/xTrY+arPud7WcgB1AFzcQ5L+5qtFRLFe
mtRW5hA3+9X6R9yhc5SyXub2xw7KAAABcHh0YgUAAAQDAEYwRAIgdSw0HFbA8HlR
uSEkDU6O0Za9i6IH6EzpfqMrMzGcEzACIH6cJjVfBngPjyBElwL2JMHcNbDVrU14
xk2FLI6xBrnGMA0GCSqGSIb3DQEBCwUAA4IBAQBGUGTwgaFyftfduw9xpTWeNQaY
X6IdAOEshh5xD4qWdkjn23NCBHToadQoYHcWaZPE/RycyqwyyyxvOAGXnHz021/u
MijeqXw4iFzSS/pQ8WeY5Er0NoXWxizOqVTJzT2yeTfHZCHA/OuVcPppyeWlZ3J4
loERcNcUSGoe3/mCPcINIoc+AGbn3mcekVTpEv4gNz1fj8RXlxakWp+2B4PDZxv9
KmHZH4RMtx9Yqmd2NZOXZVMo19MQf927VcIPrZGKVBREgZ/0TPWCMQPHGWAcMnWp
RWLyn6OOTONhQJcywhM1Jk3YjZ+VEsbJm8uaTafFtCQhCfZfyOTaEalc4jCr
-----END CERTIFICATE-----
Certificate:
    Data:
        Version: 3 (0x2)
        Serial Number:
            0d:d6:c2:e4:86:fe:e0:c8:e4:a7:7f:99:d8:46:65:d1
    Signature Algorithm: sha256WithRSAEncryption
        Issuer: C=US, O=DigiCert Inc, CN=DigiCert SHA2 Secure Server CA
        Validity
            Not Before: Feb 24 00:00:00 2020 GMT
            Not After : Feb 24 12:00:00 2021 GMT
        Subject: C=US, ST=Texas, L=Dallas, O=AT&T Services, Inc., OU=DataVas, CN=supl.attmex.mx
        Subject Public Key Info:
            Public Key Algorithm: rsaEncryption
                Public-Key: (2048 bit)
                Modulus:
                    00:d2:dd:8b:f1:c4:fd:c8:d7:5b:73:74:65:3e:4b:
                    ea:be:24:c1:9d:1c:b5:39:08:06:72:3c:52:b2:67:
                    1a:0d:9d:0f:3a:0d:1d:d9:88:e0:b3:cb:d0:46:55:
                    89:d9:ec:8e:e6:27:02:4e:80:4f:f0:ee:b3:c5:0d:
                    2a:db:a3:d9:c9:7d:8a:7f:0c:c4:e9:dc:01:0b:bb:
                    5a:9f:09:4f:f2:06:05:b6:a8:31:15:bf:37:2e:fc:
                    c6:4b:61:22:14:36:ca:6c:cc:c7:53:18:8f:6f:36:
                    53:8d:a6:39:6c:d5:e6:66:3c:21:f6:2d:ed:32:49:
                    d4:ba:da:96:f6:dd:1f:b9:64:f6:0d:3f:4d:5f:2d:
                    81:9d:b3:9d:41:dd:c2:a7:6d:aa:a1:da:7c:9c:81:
                    3a:9b:c2:f3:6c:6e:39:f7:f7:29:a5:8d:aa:39:7d:
                    5b:0a:ee:95:c3:ff:dc:90:59:1b:27:d8:f3:e0:dd:
                    b8:2b:1d:aa:01:cc:94:71:d2:13:52:99:2f:66:1d:
                    95:eb:2a:45:45:05:40:dc:61:bf:8c:39:78:cd:e3:
                    9a:d9:41:bd:80:08:cd:db:e9:8b:5f:87:9b:ac:0f:
                    5b:df:94:d0:9e:55:67:32:8d:76:b6:3b:f4:3c:7b:
                    45:b7:4b:e2:0c:40:a0:e4:bb:d2:2f:f0:51:e3:61:
                    2f:8b
                Exponent: 65537 (0x10001)
        X509v3 extensions:
            X509v3 Authority Key Identifier: 
                keyid:0F:80:61:1C:82:31:61:D5:2F:28:E7:8D:46:38:B4:2C:E1:C6:D9:E2

            X509v3 Subject Key Identifier: 
                9D:FD:62:63:7E:35:9A:65:AC:E7:6B:98:A6:F3:49:99:29:CE:E6:C3
            X509v3 Subject Alternative Name: 
                DNS:supl.attmex.mx
            X509v3 Key Usage: critical
                Digital Signature, Key Encipherment
            X509v3 Extended Key Usage: 
                TLS Web Server Authentication, TLS Web Client Authentication
            X509v3 CRL Distribution Points: 

                Full Name:
                  URI:http://crl3.digicert.com/ssca-sha2-g6.crl

                Full Name:
                  URI:http://crl4.digicert.com/ssca-sha2-g6.crl

            X509v3 Certificate Policies: 
                Policy: 2.16.840.1.114412.1.1
                  CPS: https://www.digicert.com/CPS
                Policy: 2.23.140.1.2.2

            Authority Information Access: 
                OCSP - URI:http://ocsp.digicert.com
                CA Issuers - URI:http://cacerts.digicert.com/DigiCertSHA2SecureServerCA.crt

            X509v3 Basic Constraints: 
                CA:FALSE
            1.3.6.1.4.1.11129.2.4.2: 
                ......v.......q...#...{G8W.
.R....d6.......pxta......G0E. .d4......5......]q.....5.........!..;.. Ek..........sw(.?.:.......r.u.\.C....ED.^..V..7...G..s..^........pxtb......F0D. u,4.V..yQ.!$N........L.~.+31..0. ~.&5_.x.. D...$..5...Mx.M.,.....
    Signature Algorithm: sha256WithRSAEncryption
         46:50:64:f0:81:a1:72:7e:d7:dd:bb:0f:71:a5:35:9e:35:06:
         98:5f:a2:1d:00:e1:2c:86:1e:71:0f:8a:96:76:48:e7:db:73:
         42:04:74:e8:69:d4:28:60:77:16:69:93:c4:fd:1c:9c:ca:ac:
         32:cb:2c:6f:38:01:97:9c:7c:f4:db:5f:ee:32:28:de:a9:7c:
         38:88:5c:d2:4b:fa:50:f1:67:98:e4:4a:f4:36:85:d6:c6:2c:
         ce:a9:54:c9:cd:3d:b2:79:37:c7:64:21:c0:fc:eb:95:70:fa:
         69:c9:e5:a5:67:72:78:96:81:11:70:d7:14:48:6a:1e:df:f9:
         82:3d:c2:0d:22:87:3e:00:66:e7:de:67:1e:91:54:e9:12:fe:
         20:37:3d:5f:8f:c4:57:97:16:a4:5a:9f:b6:07:83:c3:67:1b:
         fd:2a:61:d9:1f:84:4c:b7:1f:58:aa:67:76:35:93:97:65:53:
         28:d7:d3:10:7f:dd:bb:55:c2:0f:ad:91:8a:54:14:44:81:9f:
         f4:4c:f5:82:31:03:c7:19:60:1c:32:75:a9:45:62:f2:9f:a3:
         8e:4c:e3:61:40:97:32:c2:13:35:26:4d:d8:8d:9f:95:12:c6:
         c9:9b:cb:9a:4d:a7:c5:b4:24:21:09:f6:5f:c8:e4:da:11:a9:
         5c:e2:30:ab
SHA1 Fingerprint=64:DB:2B:D9:82:2C:A2:DF:76:16:52:4F:53:78:A7:83:A5:29:64:BA
